target datalayout = "e-m:e-p270:32:32-p271:32:32-p272:64:64-i64:64-i128:128-f80:128-n8:16:32:64-S128"
target triple = "x86_64-pc-linux-gnu"

%struct.WebPBitstreamFeatures = type { i32, i32, i32, i32, i32, [5 x i32] }

; Function Attrs: nounwind uwtable
define internal void @DefaultFeatures(ptr noundef %0) #0 {
  %2 = alloca ptr, align 8
  store ptr %0, ptr %2, align 8, !tbaa !90
  %3 = load ptr, ptr %2, align 8, !tbaa !90
  call void @llvm.memset.p0.i64(ptr align 4 %3, i8 0, i64 40, i1 false)
  ret void
}

; Function Attrs: nounwind uwtable
define internal i32 @GetFeatures(ptr noundef %0, i64 noundef %1, ptr noundef %2) #0 {
  %4 = alloca i32, align 4
  %5 = alloca ptr, align 8
  %6 = alloca i64, align 8
  %7 = alloca ptr, align 8
  store ptr %0, ptr %5, align 8, !tbaa !14
  store i64 %1, ptr %6, align 8, !tbaa !15
  store ptr %2, ptr %7, align 8, !tbaa !90
  %8 = load ptr, ptr %7, align 8, !tbaa !90
  %9 = icmp eq ptr %8, null
  br i1 %9, label %13, label %10

10:                                               ; preds = %3
  %11 = load ptr, ptr %5, align 8, !tbaa !14
  %12 = icmp eq ptr %11, null
  br i1 %12, label %13, label %14

13:                                               ; preds = %10, %3
  store i32 2, ptr %4, align 4
  br label %29

14:                                               ; preds = %10
  %15 = load ptr, ptr %7, align 8, !tbaa !90
  call void @DefaultFeatures(ptr noundef %15)
  %16 = load ptr, ptr %5, align 8, !tbaa !14
  %17 = load i64, ptr %6, align 8, !tbaa !15
  %18 = load ptr, ptr %7, align 8, !tbaa !90
  %19 = getelementptr inbounds nuw %struct.WebPBitstreamFeatures, ptr %18, i32 0, i32 0
  %20 = load ptr, ptr %7, align 8, !tbaa !90
  %21 = getelementptr inbounds nuw %struct.WebPBitstreamFeatures, ptr %20, i32 0, i32 1
  %22 = load ptr, ptr %7, align 8, !tbaa !90
  %23 = getelementptr inbounds nuw %struct.WebPBitstreamFeatures, ptr %22, i32 0, i32 2
  %24 = load ptr, ptr %7, align 8, !tbaa !90
  %25 = getelementptr inbounds nuw %struct.WebPBitstreamFeatures, ptr %24, i32 0, i32 3
  %26 = load ptr, ptr %7, align 8, !tbaa !90
  %27 = getelementptr inbounds nuw %struct.WebPBitstreamFeatures, ptr %26, i32 0, i32 4
  %28 = call i32 @ParseHeadersInternal(ptr noundef %16, i64 noundef %17, ptr noundef %19, ptr noundef %21, ptr noundef %23, ptr noundef %25, ptr noundef %27, ptr noundef null)
  store i32 %28, ptr %4, align 4
  br label %29

29:                                               ; preds = %14, %13
  %30 = load i32, ptr %4, align 4
  ret i32 %30
}

; Function Attrs: nounwind uwtable
define i32 @WebPGetInfo(ptr noundef %0, i64 noundef %1, ptr noundef %2, ptr noundef %3) #0 {
  %5 = alloca i32, align 4
  %6 = alloca ptr, align 8
  %7 = alloca i64, align 8
  %8 = alloca ptr, align 8
  %9 = alloca ptr, align 8
  %10 = alloca %struct.WebPBitstreamFeatures, align 4
  %11 = alloca i32, align 4
  store ptr %0, ptr %6, align 8, !tbaa !14
  store i64 %1, ptr %7, align 8, !tbaa !15
  store ptr %2, ptr %8, align 8, !tbaa !16
  store ptr %3, ptr %9, align 8, !tbaa !16
  call void @llvm.lifetime.start.p0(i64 40, ptr %10) #7
  %12 = load ptr, ptr %6, align 8, !tbaa !14
  %13 = load i64, ptr %7, align 8, !tbaa !15
  %14 = call i32 @GetFeatures(ptr noundef %12, i64 noundef %13, ptr noundef %10)
  %15 = icmp ne i32 %14, 0
  br i1 %15, label %16, label %17

16:                                               ; preds = %4
  store i32 0, ptr %5, align 4
  store i32 1, ptr %11, align 4
  br label %32

17:                                               ; preds = %4
  %18 = load ptr, ptr %8, align 8, !tbaa !16
  %19 = icmp ne ptr %18, null
  br i1 %19, label %20, label %24

20:                                               ; preds = %17
  %21 = getelementptr inbounds nuw %struct.WebPBitstreamFeatures, ptr %10, i32 0, i32 0
  %22 = load i32, ptr %21, align 4, !tbaa !87
  %23 = load ptr, ptr %8, align 8, !tbaa !16
  store i32 %22, ptr %23, align 4, !tbaa !7
  br label %24

24:                                               ; preds = %20, %17
  %25 = load ptr, ptr %9, align 8, !tbaa !16
  %26 = icmp ne ptr %25, null
  br i1 %26, label %27, label %31

27:                                               ; preds = %24
  %28 = getelementptr inbounds nuw %struct.WebPBitstreamFeatures, ptr %10, i32 0, i32 1
  %29 = load i32, ptr %28, align 4, !tbaa !89
  %30 = load ptr, ptr %9, align 8, !tbaa !16
  store i32 %29, ptr %30, align 4, !tbaa !7
  br label %31

31:                                               ; preds = %27, %24
  store i32 1, ptr %5, align 4
  store i32 1, ptr %11, align 4
  br label %32

32:                                               ; preds = %31, %16
  call void @llvm.lifetime.end.p0(i64 40, ptr %10) #7
  %33 = load i32, ptr %5, align 4
  ret i32 %33
}