; Function Attrs: nounwind uwtable
define range(i32 0, 2) i32 @WebPGetInfo(ptr noundef %0, i64 noundef %1, ptr noundef writeonly captures(address_is_null) %2, ptr noundef writeonly captures(address_is_null) %3) local_unnamed_addr #0 {
  %5 = alloca %struct.WebPBitstreamFeatures, align 4
  call void @llvm.lifetime.start.p0(i64 40, ptr nonnull %5) #10
  %6 = icmp eq ptr %0, null
  br i1 %6, label %GetFeatures.exit.thread, label %GetFeatures.exit

GetFeatures.exit:                                 ; preds = %4
  call void @llvm.memset.p0.i64(ptr noundef nonnull align 4 dereferenceable(40) %5, i8 0, i64 40, i1 false)
  %7 = getelementptr inbounds nuw i8, ptr %5, i64 4
  %8 = getelementptr inbounds nuw i8, ptr %5, i64 8
  %9 = getelementptr inbounds nuw i8, ptr %5, i64 12
  %10 = getelementptr inbounds nuw i8, ptr %5, i64 16
  %11 = call fastcc i32 @ParseHeadersInternal(ptr noundef nonnull %0, i64 noundef %1, ptr noundef nonnull %5, ptr noundef nonnull %7, ptr noundef nonnull %8, ptr noundef %9, ptr noundef nonnull %10, ptr noundef null)
  %.not = icmp eq i32 %11, 0
  br i1 %.not, label %12, label %GetFeatures.exit.thread

12:                                               ; preds = %GetFeatures.exit
  %.not8 = icmp eq ptr %2, null
  br i1 %.not8, label %15, label %13

13:                                               ; preds = %12
  %14 = load i32, ptr %5, align 4, !tbaa !67
  store i32 %14, ptr %2, align 4, !tbaa !3
  br label %15

15:                                               ; preds = %13, %12
  %.not9 = icmp eq ptr %3, null
  br i1 %.not9, label %GetFeatures.exit.thread, label %16

16:                                               ; preds = %15
  %17 = load i32, ptr %7, align 4, !tbaa !69
  store i32 %17, ptr %3, align 4, !tbaa !3
  br label %GetFeatures.exit.thread

GetFeatures.exit.thread:                          ; preds = %4, %15, %16, %GetFeatures.exit
  %.0 = phi i32 [ 0, %GetFeatures.exit ], [ 1, %16 ], [ 1, %15 ], [ 0, %4 ]
  call void @llvm.lifetime.end.p0(i64 40, ptr nonnull %5) #10
  ret i32 %.0
}